# SymbolsHelper-Confirmed: 17.12.1
libKF5Mime.so.5abi1 libkf5mime5abi1 #MINVER#
 _ZN10QByteArray7reserveEi@ABI_5_1 17.12.1
 _ZN5KMime11NewsArticle10followUpToEb@ABI_5_1 17.12.1
 _ZN5KMime11NewsArticle10newsgroupsEb@ABI_5_1 17.12.1
 _ZN5KMime11NewsArticle10supersedesEb@ABI_5_1 17.12.1
 _ZN5KMime11NewsArticle12mailCopiesToEb@ABI_5_1 17.12.1
 _ZN5KMime11NewsArticle15assembleHeadersEv@ABI_5_1 17.12.1
 _ZN5KMime11NewsArticle5linesEb@ABI_5_1 17.12.1
 _ZN5KMime11NewsArticle7controlEb@ABI_5_1 17.12.1
 _ZN5KMime11NewsArticleC1Ev@ABI_5_1 17.12.1
 _ZN5KMime11NewsArticleC2Ev@ABI_5_1 17.12.1
 _ZN5KMime11NewsArticleD0Ev@ABI_5_1 17.12.1
 _ZN5KMime11NewsArticleD1Ev@ABI_5_1 17.12.1
 _ZN5KMime11NewsArticleD2Ev@ABI_5_1 17.12.1
 _ZN5KMime11isEncryptedEPNS_7MessageE@ABI_5_1 17.12.1
 _ZN5KMime12ContentIndex2upEv@ABI_5_1 17.12.1
 _ZN5KMime12ContentIndex3popEv@ABI_5_1 17.12.1
 _ZN5KMime12ContentIndex4pushEj@ABI_5_1 17.12.1
 _ZN5KMime12ContentIndexC1ERK7QString@ABI_5_1 17.12.1
 _ZN5KMime12ContentIndexC1ERKS0_@ABI_5_1 17.12.1
 _ZN5KMime12ContentIndexC1Ev@ABI_5_1 17.12.1
 _ZN5KMime12ContentIndexC2ERK7QString@ABI_5_1 17.12.1
 _ZN5KMime12ContentIndexC2ERKS0_@ABI_5_1 17.12.1
 _ZN5KMime12ContentIndexC2Ev@ABI_5_1 17.12.1
 _ZN5KMime12ContentIndexD1Ev@ABI_5_1 17.12.1
 _ZN5KMime12ContentIndexD2Ev@ABI_5_1 17.12.1
 _ZN5KMime12ContentIndexaSERKS0_@ABI_5_1 17.12.1
 _ZN5KMime12isAttachmentEPNS_7ContentE@ABI_5_1 17.12.1
 _ZN5KMime12isCryptoPartEPNS_7ContentE@ABI_5_1 17.12.1
 _ZN5KMime12isInvitationEPNS_7ContentE@ABI_5_1 17.12.1
 _ZN5KMime12removeQuotesER10QByteArray@ABI_5_1 17.12.1
 _ZN5KMime12removeQuotesER7QString@ABI_5_1 17.12.1
 _ZN5KMime12unfoldHeaderEPKcm@ABI_5_1 17.12.1
 _ZN5KMime12unfoldHeaderERK10QByteArray@ABI_5_1 17.12.1
 ABI_5_1@ABI_5_1 17.12.1
 (subst)_ZN5KMime13DateFormatter10formatDateENS0_10FormatTypeE{time_t}RK7QStringb@ABI_5_1 17.12.1
 _ZN5KMime13DateFormatter15setCustomFormatERK7QString@ABI_5_1 17.12.1
 _ZN5KMime13DateFormatter17formatCurrentDateENS0_10FormatTypeERK7QStringb@ABI_5_1 17.12.1
 _ZN5KMime13DateFormatter9setFormatENS0_10FormatTypeE@ABI_5_1 17.12.1
 _ZN5KMime13DateFormatterC1ENS0_10FormatTypeE@ABI_5_1 17.12.1
 _ZN5KMime13DateFormatterC2ENS0_10FormatTypeE@ABI_5_1 17.12.1
 _ZN5KMime13DateFormatterD1Ev@ABI_5_1 17.12.1
 _ZN5KMime13DateFormatterD2Ev@ABI_5_1 17.12.1
 _ZN5KMime13HeaderParsing10parseGroupERPKcS2_RNS_5Types7AddressEb@ABI_5_1 17.12.1
 _ZN5KMime13HeaderParsing10parseTokenERPKcS2_R5QPairIS2_iE6QFlagsINS0_14ParseTokenFlagEE@ABI_5_1 17.12.1
 _ZN5KMime13HeaderParsing10parseTokenERPKcS2_R7QString6QFlagsINS0_14ParseTokenFlagEE@ABI_5_1 17.12.1
 _ZN5KMime13HeaderParsing11parseDigitsERPKcS2_Ri@ABI_5_1 17.12.1
 _ZN5KMime13HeaderParsing11parseDomainERPKcS2_R7QStringb@ABI_5_1 17.12.1
 _ZN5KMime13HeaderParsing11parsePhraseERPKcS2_R7QStringb@ABI_5_1 17.12.1
 _ZN5KMime13HeaderParsing12parseAddressERPKcS2_RNS_5Types7AddressEb@ABI_5_1 17.12.1
 _ZN5KMime13HeaderParsing12parseCommentERPKcS2_R7QStringbb@ABI_5_1 17.12.1
 _ZN5KMime13HeaderParsing12parseDotAtomERPKcS2_R7QStringb@ABI_5_1 17.12.1
 _ZN5KMime13HeaderParsing12parseMailboxERPKcS2_RNS_5Types7MailboxEb@ABI_5_1 17.12.1
 _ZN5KMime13HeaderParsing13parseAddrSpecERPKcS2_RNS_5Types8AddrSpecEb@ABI_5_1 17.12.1
 _ZN5KMime13HeaderParsing13parseDateTimeERPKcS2_R9QDateTimeb@ABI_5_1 17.12.1
 _ZN5KMime13HeaderParsing13parseObsRouteERPKcS2_R11QStringListbb@ABI_5_1 17.12.1
 _ZN5KMime13HeaderParsing14parseAngleAddrERPKcS2_RNS_5Types8AddrSpecEb@ABI_5_1 17.12.1
 _ZN5KMime13HeaderParsing14parseParameterERPKcS2_R5QPairI7QStringNS_5Types14QStringOrQPairEEb@ABI_5_1 17.12.1
 _ZN5KMime13HeaderParsing16parseAddressListERPKcS2_R7QVectorINS_5Types7AddressEEb@ABI_5_1 17.12.1
 _ZN5KMime13HeaderParsing16parseEncodedWordERPKcS2_R7QStringR10QByteArrayS7_RKS6_b@ABI_5_1 17.12.1
 _ZN5KMime13HeaderParsing18extractFirstHeaderER10QByteArray@ABI_5_1 17.12.1
 _ZN5KMime13HeaderParsing18parseParameterListERPKcS2_R4QMapI7QStringS5_Eb@ABI_5_1 17.12.1
 _ZN5KMime13HeaderParsing20extractHeaderAndBodyERK10QByteArrayRS1_S4_@ABI_5_1 17.12.1
 _ZN5KMime13HeaderParsing21parseRawParameterListERPKcS2_R4QMapI7QStringNS_5Types14QStringOrQPairEEb@ABI_5_1 17.12.1
 _ZN5KMime13HeaderParsing24parseGenericQuotedStringERPKcS2_R7QStringbcc@ABI_5_1 17.12.1
 _ZN5KMime13HeaderParsing29parseParameterListWithCharsetERPKcS2_R4QMapI7QStringS5_ER10QByteArrayb@ABI_5_1 17.12.1
 _ZN5KMime13HeaderParsing7eatCFWSERPKcS2_b@ABI_5_1 17.12.1
 _ZN5KMime13HeaderParsing9parseAtomERPKcS2_R5QPairIS2_iEb@ABI_5_1 17.12.1
 _ZN5KMime13HeaderParsing9parseAtomERPKcS2_R7QStringb@ABI_5_1 17.12.1
 _ZN5KMime13HeaderParsing9parseTimeERPKcS2_RiS4_S4_RlRbb@ABI_5_1 17.12.1
 _ZN5KMime13extractHeaderERK10QByteArrayS2_@ABI_5_1 17.12.1
 _ZN5KMime13hasAttachmentEPNS_7ContentE@ABI_5_1 17.12.1
 _ZN5KMime13hasInvitationEPNS_7ContentE@ABI_5_1 17.12.1
 _ZN5KMime15nameForEncodingENS_7Headers15contentEncodingE@ABI_5_1 17.12.1
 _ZN5KMime16balanceBidiStateERK7QString@ABI_5_1 17.12.1
 _ZN5KMime16encodingsForDataERK10QByteArray@ABI_5_1 17.12.1
 _ZN5KMime17multiPartBoundaryEv@ABI_5_1 17.12.1
 _ZN5KMime22removeBidiControlCharsERK7QString@ABI_5_1 17.12.1
 _ZN5KMime28useOutlookAttachmentEncodingEv@ABI_5_1 17.12.1
 _ZN5KMime31setUseOutlookAttachmentEncodingEb@ABI_5_1 17.12.1
 _ZN5KMime3MDN14descriptionForENS0_15DispositionTypeERK7QVectorINS0_19DispositionModifierEE@ABI_5_1 17.12.1
 _ZN5KMime3MDN34dispositionNotificationBodyContentERK7QStringRK10QByteArrayS6_NS0_15DispositionTypeENS0_10ActionModeENS0_11SendingModeERK7QVectorINS0_19DispositionModifierEES3_@ABI_5_1 17.12.1
 _ZN5KMime5Types7Mailbox10setAddressERK10QByteArray@ABI_5_1 17.12.1
 _ZN5KMime5Types7Mailbox10setAddressERKNS0_8AddrSpecE@ABI_5_1 17.12.1
 _ZN5KMime5Types7Mailbox14from7BitStringERK10QByteArray@ABI_5_1 17.12.1
 _ZN5KMime5Types7Mailbox15setNameFrom7BitERK10QByteArrayS4_@ABI_5_1 17.12.1
 _ZN5KMime5Types7Mailbox17fromUnicodeStringERK7QString@ABI_5_1 17.12.1
 _ZN5KMime5Types7Mailbox18listFrom7BitStringERK10QByteArray@ABI_5_1 17.12.1
 _ZN5KMime5Types7Mailbox19listToUnicodeStringERK7QVectorIS1_E@ABI_5_1 17.12.1
 _ZN5KMime5Types7Mailbox21listFromUnicodeStringERK7QString@ABI_5_1 17.12.1
 _ZN5KMime5Types7Mailbox7setNameERK7QString@ABI_5_1 17.12.1
 _ZN5KMime5qHashERKNS_12ContentIndexE@ABI_5_1 17.12.1
 _ZN5KMime7Content10addContentEPS0_b@ABI_5_1 17.12.1
 _ZN5KMime7Content10setContentERK10QByteArray@ABI_5_1 17.12.1
 _ZN5KMime7Content11attachmentsEv@ABI_5_1 17.12.1
 _ZN5KMime7Content11contentTypeEb@ABI_5_1 17.12.1
 _ZN5KMime7Content11decodedTextEbb@ABI_5_1 17.12.1
 _ZN5KMime7Content11encodedBodyEv@ABI_5_1 17.12.1
 _ZN5KMime7Content11setEpilogueERK10QByteArray@ABI_5_1 17.12.1
 _ZN5KMime7Content11setPreambleERK10QByteArray@ABI_5_1 17.12.1
 _ZN5KMime7Content11textContentEv@ABI_5_1 17.12.1
 _ZN5KMime7Content12appendHeaderEPNS_7Headers4BaseE@ABI_5_1 17.12.1
 _ZN5KMime7Content12removeHeaderEPKc@ABI_5_1 17.12.1
 _ZN5KMime7Content13clearContentsEb@ABI_5_1 17.12.1
 _ZN5KMime7Content13removeContentEPS0_b@ABI_5_1 17.12.1
 _ZN5KMime7Content14changeEncodingENS_7Headers15contentEncodingE@ABI_5_1 17.12.1
 _ZN5KMime7Content14decodedContentEv@ABI_5_1 17.12.1
 _ZN5KMime7Content14defaultCharsetEv@ABI_5_1 17.12.1
 _ZN5KMime7Content14encodedContentEb@ABI_5_1 17.12.1
 _ZN5KMime7Content14replaceContentEPS0_S1_@ABI_5_1 17.12.1
 _ZN5KMime7Content15assembleHeadersEv@ABI_5_1 17.12.1
 _ZN5KMime7Content15contentLocationEb@ABI_5_1 17.12.1
 _ZN5KMime7Content17fromUnicodeStringERK7QString@ABI_5_1 17.12.1
 _ZN5KMime7Content18contentDescriptionEb@ABI_5_1 17.12.1
 _ZN5KMime7Content18contentDispositionEb@ABI_5_1 17.12.1
 _ZN5KMime7Content23contentTransferEncodingEb@ABI_5_1 17.12.1
 _ZN5KMime7Content4sizeEv@ABI_5_1 17.12.1
 _ZN5KMime7Content5clearEv@ABI_5_1 17.12.1
 _ZN5KMime7Content5parseEv@ABI_5_1 17.12.1
 (optional=templinst)_ZN5KMime7Content6headerINS_7Headers11ContentTypeEEEPT_b@ABI_5_1 17.12.1
 _ZN5KMime7Content7setBodyERK10QByteArray@ABI_5_1 17.12.1
 _ZN5KMime7Content7setHeadERK10QByteArray@ABI_5_1 17.12.1
 _ZN5KMime7Content8assembleEv@ABI_5_1 17.12.1
 _ZN5KMime7Content9contentIDEb@ABI_5_1 17.12.1
 _ZN5KMime7Content9setFrozenEb@ABI_5_1 17.12.1
 _ZN5KMime7Content9setHeaderEPNS_7Headers4BaseE@ABI_5_1 17.12.1
 _ZN5KMime7Content9setParentEPS0_@ABI_5_1 17.12.1
 _ZN5KMime7ContentC1EPS0_@ABI_5_1 17.12.1
 _ZN5KMime7ContentC2EPS0_@ABI_5_1 17.12.1
 _ZN5KMime7ContentD0Ev@ABI_5_1 17.12.1
 _ZN5KMime7ContentD1Ev@ABI_5_1 17.12.1
 _ZN5KMime7ContentD2Ev@ABI_5_1 17.12.1
 _ZN5KMime7Headers10FollowUpTo10staticTypeEv@ABI_5_1 17.12.1
 _ZN5KMime7Headers10FollowUpToC1Ev@ABI_5_1 17.12.1
 _ZN5KMime7Headers10FollowUpToC2Ev@ABI_5_1 17.12.1
 _ZN5KMime7Headers10FollowUpToD0Ev@ABI_5_1 17.12.1
 _ZN5KMime7Headers10FollowUpToD1Ev@ABI_5_1 17.12.1
 _ZN5KMime7Headers10FollowUpToD2Ev@ABI_5_1 17.12.1
 _ZN5KMime7Headers10Newsgroups10staticTypeEv@ABI_5_1 17.12.1
 _ZN5KMime7Headers10Newsgroups17fromUnicodeStringERK7QStringRK10QByteArray@ABI_5_1 17.12.1
 _ZN5KMime7Headers10Newsgroups5clearEv@ABI_5_1 17.12.1
 _ZN5KMime7Headers10Newsgroups5parseERPKcS3_b@ABI_5_1 17.12.1
 _ZN5KMime7Headers10Newsgroups9setGroupsERK7QVectorI10QByteArrayE@ABI_5_1 17.12.1
 _ZN5KMime7Headers10NewsgroupsC1Ev@ABI_5_1 17.12.1
 _ZN5KMime7Headers10NewsgroupsC2Ev@ABI_5_1 17.12.1
 _ZN5KMime7Headers10NewsgroupsD0Ev@ABI_5_1 17.12.1
 _ZN5KMime7Headers10NewsgroupsD1Ev@ABI_5_1 17.12.1
 _ZN5KMime7Headers10NewsgroupsD2Ev@ABI_5_1 17.12.1
 _ZN5KMime7Headers10References10staticTypeEv@ABI_5_1 17.12.1
 _ZN5KMime7Headers10ReferencesC1Ev@ABI_5_1 17.12.1
 _ZN5KMime7Headers10ReferencesC2Ev@ABI_5_1 17.12.1
 _ZN5KMime7Headers10ReferencesD0Ev@ABI_5_1 17.12.1
 _ZN5KMime7Headers10ReferencesD1Ev@ABI_5_1 17.12.1
 _ZN5KMime7Headers10ReferencesD2Ev@ABI_5_1 17.12.1
 _ZN5KMime7Headers10ReturnPath10staticTypeEv@ABI_5_1 17.12.1
 _ZN5KMime7Headers10ReturnPath5clearEv@ABI_5_1 17.12.1
 _ZN5KMime7Headers10ReturnPath5parseERPKcS3_b@ABI_5_1 17.12.1
 _ZN5KMime7Headers10ReturnPathC1Ev@ABI_5_1 17.12.1
 _ZN5KMime7Headers10ReturnPathC2Ev@ABI_5_1 17.12.1
 _ZN5KMime7Headers10ReturnPathD0Ev@ABI_5_1 17.12.1
 _ZN5KMime7Headers10ReturnPathD1Ev@ABI_5_1 17.12.1
 _ZN5KMime7Headers10ReturnPathD2Ev@ABI_5_1 17.12.1
 _ZN5KMime7Headers10Supersedes10staticTypeEv@ABI_5_1 17.12.1
 _ZN5KMime7Headers10SupersedesC1Ev@ABI_5_1 17.12.1
 _ZN5KMime7Headers10SupersedesC2Ev@ABI_5_1 17.12.1
 _ZN5KMime7Headers10SupersedesD0Ev@ABI_5_1 17.12.1
 _ZN5KMime7Headers10SupersedesD1Ev@ABI_5_1 17.12.1
 _ZN5KMime7Headers10SupersedesD2Ev@ABI_5_1 17.12.1
 _ZN5KMime7Headers11ContentType10setCharsetERK10QByteArray@ABI_5_1 17.12.1
 _ZN5KMime7Headers11ContentType10staticTypeEv@ABI_5_1 17.12.1
 _ZN5KMime7Headers11ContentType11setBoundaryERK10QByteArray@ABI_5_1 17.12.1
 _ZN5KMime7Headers11ContentType11setCategoryENS0_15contentCategoryE@ABI_5_1 17.12.1
 _ZN5KMime7Headers11ContentType11setMimeTypeERK10QByteArray@ABI_5_1 17.12.1
 _ZN5KMime7Headers11ContentType16setPartialParamsEii@ABI_5_1 17.12.1
 _ZN5KMime7Headers11ContentType5clearEv@ABI_5_1 17.12.1
 _ZN5KMime7Headers11ContentType5parseERPKcS3_b@ABI_5_1 17.12.1
 _ZN5KMime7Headers11ContentType5setIdERK10QByteArray@ABI_5_1 17.12.1
 _ZN5KMime7Headers11ContentType7setNameERK7QStringRK10QByteArray@ABI_5_1 17.12.1
 _ZN5KMime7Headers11ContentTypeC1Ev@ABI_5_1 17.12.1
 _ZN5KMime7Headers11ContentTypeC2Ev@ABI_5_1 17.12.1
 _ZN5KMime7Headers11ContentTypeD0Ev@ABI_5_1 17.12.1
 _ZN5KMime7Headers11ContentTypeD1Ev@ABI_5_1 17.12.1
 _ZN5KMime7Headers11ContentTypeD2Ev@ABI_5_1 17.12.1
 _ZN5KMime7Headers11MIMEVersion10staticTypeEv@ABI_5_1 17.12.1
 _ZN5KMime7Headers11MIMEVersionC1Ev@ABI_5_1 17.12.1
 _ZN5KMime7Headers11MIMEVersionC2Ev@ABI_5_1 17.12.1
 _ZN5KMime7Headers11MIMEVersionD0Ev@ABI_5_1 17.12.1
 _ZN5KMime7Headers11MIMEVersionD1Ev@ABI_5_1 17.12.1
 _ZN5KMime7Headers11MIMEVersionD2Ev@ABI_5_1 17.12.1
 _ZN5KMime7Headers12MailCopiesTo10staticTypeEv@ABI_5_1 17.12.1
 _ZN5KMime7Headers12MailCopiesTo12setNeverCopyEv@ABI_5_1 17.12.1
 _ZN5KMime7Headers12MailCopiesTo13setAlwaysCopyEv@ABI_5_1 17.12.1
 _ZN5KMime7Headers12MailCopiesTo5clearEv@ABI_5_1 17.12.1
 _ZN5KMime7Headers12MailCopiesTo5parseERPKcS3_b@ABI_5_1 17.12.1
 _ZN5KMime7Headers12MailCopiesToC1Ev@ABI_5_1 17.12.1
 _ZN5KMime7Headers12MailCopiesToC2Ev@ABI_5_1 17.12.1
 _ZN5KMime7Headers12MailCopiesToD0Ev@ABI_5_1 17.12.1
 _ZN5KMime7Headers12MailCopiesToD1Ev@ABI_5_1 17.12.1
 _ZN5KMime7Headers12MailCopiesToD2Ev@ABI_5_1 17.12.1
 _ZN5KMime7Headers12Organization10staticTypeEv@ABI_5_1 17.12.1
 _ZN5KMime7Headers12OrganizationC1Ev@ABI_5_1 17.12.1
 _ZN5KMime7Headers12OrganizationC2Ev@ABI_5_1 17.12.1
 _ZN5KMime7Headers12OrganizationD0Ev@ABI_5_1 17.12.1
 _ZN5KMime7Headers12OrganizationD1Ev@ABI_5_1 17.12.1
 _ZN5KMime7Headers12OrganizationD2Ev@ABI_5_1 17.12.1
 _ZN5KMime7Headers12createHeaderERK10QByteArray@ABI_5_1 17.12.1
 _ZN5KMime7Headers15ContentLocation10staticTypeEv@ABI_5_1 17.12.1
 _ZN5KMime7Headers15ContentLocationC1Ev@ABI_5_1 17.12.1
 _ZN5KMime7Headers15ContentLocationC2Ev@ABI_5_1 17.12.1
 _ZN5KMime7Headers15ContentLocationD0Ev@ABI_5_1 17.12.1
 _ZN5KMime7Headers15ContentLocationD1Ev@ABI_5_1 17.12.1
 _ZN5KMime7Headers15ContentLocationD2Ev@ABI_5_1 17.12.1
 _ZN5KMime7Headers18ContentDescription10staticTypeEv@ABI_5_1 17.12.1
 _ZN5KMime7Headers18ContentDescriptionC1Ev@ABI_5_1 17.12.1
 _ZN5KMime7Headers18ContentDescriptionC2Ev@ABI_5_1 17.12.1
 _ZN5KMime7Headers18ContentDescriptionD0Ev@ABI_5_1 17.12.1
 _ZN5KMime7Headers18ContentDescriptionD1Ev@ABI_5_1 17.12.1
 _ZN5KMime7Headers18ContentDescriptionD2Ev@ABI_5_1 17.12.1
 _ZN5KMime7Headers18ContentDisposition10staticTypeEv@ABI_5_1 17.12.1
 _ZN5KMime7Headers18ContentDisposition11setFilenameERK7QString@ABI_5_1 17.12.1
 _ZN5KMime7Headers18ContentDisposition14setDispositionENS0_18contentDispositionE@ABI_5_1 17.12.1
 _ZN5KMime7Headers18ContentDisposition5clearEv@ABI_5_1 17.12.1
 _ZN5KMime7Headers18ContentDisposition5parseERPKcS3_b@ABI_5_1 17.12.1
 _ZN5KMime7Headers18ContentDispositionC1Ev@ABI_5_1 17.12.1
 _ZN5KMime7Headers18ContentDispositionC2Ev@ABI_5_1 17.12.1
 _ZN5KMime7Headers18ContentDispositionD0Ev@ABI_5_1 17.12.1
 _ZN5KMime7Headers18ContentDispositionD1Ev@ABI_5_1 17.12.1
 _ZN5KMime7Headers18ContentDispositionD2Ev@ABI_5_1 17.12.1
 _ZN5KMime7Headers23ContentTransferEncoding10setDecodedEb@ABI_5_1 17.12.1
 _ZN5KMime7Headers23ContentTransferEncoding10staticTypeEv@ABI_5_1 17.12.1
 _ZN5KMime7Headers23ContentTransferEncoding11setEncodingENS0_15contentEncodingE@ABI_5_1 17.12.1
 _ZN5KMime7Headers23ContentTransferEncoding5clearEv@ABI_5_1 17.12.1
 _ZN5KMime7Headers23ContentTransferEncoding5parseERPKcS3_b@ABI_5_1 17.12.1
 _ZN5KMime7Headers23ContentTransferEncodingC1Ev@ABI_5_1 17.12.1
 _ZN5KMime7Headers23ContentTransferEncodingC2Ev@ABI_5_1 17.12.1
 _ZN5KMime7Headers23ContentTransferEncodingD0Ev@ABI_5_1 17.12.1
 _ZN5KMime7Headers23ContentTransferEncodingD1Ev@ABI_5_1 17.12.1
 _ZN5KMime7Headers23ContentTransferEncodingD2Ev@ABI_5_1 17.12.1
 _ZN5KMime7Headers2Cc10staticTypeEv@ABI_5_1 17.12.1
 _ZN5KMime7Headers2CcC1Ev@ABI_5_1 17.12.1
 _ZN5KMime7Headers2CcC2Ev@ABI_5_1 17.12.1
 _ZN5KMime7Headers2CcD0Ev@ABI_5_1 17.12.1
 _ZN5KMime7Headers2CcD1Ev@ABI_5_1 17.12.1
 _ZN5KMime7Headers2CcD2Ev@ABI_5_1 17.12.1
 _ZN5KMime7Headers2To10staticTypeEv@ABI_5_1 17.12.1
 _ZN5KMime7Headers2ToC1Ev@ABI_5_1 17.12.1
 _ZN5KMime7Headers2ToC2Ev@ABI_5_1 17.12.1
 _ZN5KMime7Headers2ToD0Ev@ABI_5_1 17.12.1
 _ZN5KMime7Headers2ToD1Ev@ABI_5_1 17.12.1
 _ZN5KMime7Headers2ToD2Ev@ABI_5_1 17.12.1
 _ZN5KMime7Headers3Bcc10staticTypeEv@ABI_5_1 17.12.1
 _ZN5KMime7Headers3BccC1Ev@ABI_5_1 17.12.1
 _ZN5KMime7Headers3BccC2Ev@ABI_5_1 17.12.1
 _ZN5KMime7Headers3BccD0Ev@ABI_5_1 17.12.1
 _ZN5KMime7Headers3BccD1Ev@ABI_5_1 17.12.1
 _ZN5KMime7Headers3BccD2Ev@ABI_5_1 17.12.1
 _ZN5KMime7Headers4Base14from7BitStringEPKcm@ABI_5_1 17.12.1
 _ZN5KMime7Headers4Base17setRFC2047CharsetERK10QByteArray@ABI_5_1 17.12.1
 _ZN5KMime7Headers4BaseC1EPNS0_11BasePrivateE@ABI_5_1 17.12.1
 _ZN5KMime7Headers4BaseC1Ev@ABI_5_1 17.12.1
 _ZN5KMime7Headers4BaseC2EPNS0_11BasePrivateE@ABI_5_1 17.12.1
 _ZN5KMime7Headers4BaseC2Ev@ABI_5_1 17.12.1
 _ZN5KMime7Headers4BaseD0Ev@ABI_5_1 17.12.1
 _ZN5KMime7Headers4BaseD1Ev@ABI_5_1 17.12.1
 _ZN5KMime7Headers4BaseD2Ev@ABI_5_1 17.12.1
 _ZN5KMime7Headers4Date10staticTypeEv@ABI_5_1 17.12.1
 _ZN5KMime7Headers4Date11setDateTimeERK9QDateTime@ABI_5_1 17.12.1
 _ZN5KMime7Headers4Date5clearEv@ABI_5_1 17.12.1
 _ZN5KMime7Headers4Date5parseERPKcS3_b@ABI_5_1 17.12.1
 _ZN5KMime7Headers4DateC1Ev@ABI_5_1 17.12.1
 _ZN5KMime7Headers4DateC2Ev@ABI_5_1 17.12.1
 _ZN5KMime7Headers4DateD0Ev@ABI_5_1 17.12.1
 _ZN5KMime7Headers4DateD1Ev@ABI_5_1 17.12.1
 _ZN5KMime7Headers4DateD2Ev@ABI_5_1 17.12.1
 _ZN5KMime7Headers4From10staticTypeEv@ABI_5_1 17.12.1
 _ZN5KMime7Headers4FromC1Ev@ABI_5_1 17.12.1
 _ZN5KMime7Headers4FromC2Ev@ABI_5_1 17.12.1
 _ZN5KMime7Headers4FromD0Ev@ABI_5_1 17.12.1
 _ZN5KMime7Headers4FromD1Ev@ABI_5_1 17.12.1
 _ZN5KMime7Headers4FromD2Ev@ABI_5_1 17.12.1
 _ZN5KMime7Headers5Lines10staticTypeEv@ABI_5_1 17.12.1
 _ZN5KMime7Headers5Lines16setNumberOfLinesEi@ABI_5_1 17.12.1
 _ZN5KMime7Headers5Lines5clearEv@ABI_5_1 17.12.1
 _ZN5KMime7Headers5Lines5parseERPKcS3_b@ABI_5_1 17.12.1
 _ZN5KMime7Headers5LinesC1Ev@ABI_5_1 17.12.1
 _ZN5KMime7Headers5LinesC2Ev@ABI_5_1 17.12.1
 _ZN5KMime7Headers5LinesD0Ev@ABI_5_1 17.12.1
 _ZN5KMime7Headers5LinesD1Ev@ABI_5_1 17.12.1
 _ZN5KMime7Headers5LinesD2Ev@ABI_5_1 17.12.1
 _ZN5KMime7Headers6Sender10staticTypeEv@ABI_5_1 17.12.1
 _ZN5KMime7Headers6SenderC1Ev@ABI_5_1 17.12.1
 _ZN5KMime7Headers6SenderC2Ev@ABI_5_1 17.12.1
 _ZN5KMime7Headers6SenderD0Ev@ABI_5_1 17.12.1
 _ZN5KMime7Headers6SenderD1Ev@ABI_5_1 17.12.1
 _ZN5KMime7Headers6SenderD2Ev@ABI_5_1 17.12.1
 _ZN5KMime7Headers7Control10staticTypeEv@ABI_5_1 17.12.1
 _ZN5KMime7Headers7Control5clearEv@ABI_5_1 17.12.1
 _ZN5KMime7Headers7Control5parseERPKcS3_b@ABI_5_1 17.12.1
 _ZN5KMime7Headers7Control9setCancelERK10QByteArray@ABI_5_1 17.12.1
 _ZN5KMime7Headers7ControlC1Ev@ABI_5_1 17.12.1
 _ZN5KMime7Headers7ControlC2Ev@ABI_5_1 17.12.1
 _ZN5KMime7Headers7ControlD0Ev@ABI_5_1 17.12.1
 _ZN5KMime7Headers7ControlD1Ev@ABI_5_1 17.12.1
 _ZN5KMime7Headers7ControlD2Ev@ABI_5_1 17.12.1
 _ZN5KMime7Headers7Generic5clearEv@ABI_5_1 17.12.1
 _ZN5KMime7Headers7Generic7setTypeEPKci@ABI_5_1 17.12.1
 _ZN5KMime7Headers7GenericC1EPKci@ABI_5_1 17.12.1
 _ZN5KMime7Headers7GenericC1Ev@ABI_5_1 17.12.1
 _ZN5KMime7Headers7GenericC2EPKci@ABI_5_1 17.12.1
 _ZN5KMime7Headers7GenericC2Ev@ABI_5_1 17.12.1
 _ZN5KMime7Headers7GenericD0Ev@ABI_5_1 17.12.1
 _ZN5KMime7Headers7GenericD1Ev@ABI_5_1 17.12.1
 _ZN5KMime7Headers7GenericD2Ev@ABI_5_1 17.12.1
 _ZN5KMime7Headers7ReplyTo10staticTypeEv@ABI_5_1 17.12.1
 _ZN5KMime7Headers7ReplyToC1Ev@ABI_5_1 17.12.1
 _ZN5KMime7Headers7ReplyToC2Ev@ABI_5_1 17.12.1
 _ZN5KMime7Headers7ReplyToD0Ev@ABI_5_1 17.12.1
 _ZN5KMime7Headers7ReplyToD1Ev@ABI_5_1 17.12.1
 _ZN5KMime7Headers7ReplyToD2Ev@ABI_5_1 17.12.1
 _ZN5KMime7Headers7Subject10staticTypeEv@ABI_5_1 17.12.1
 _ZN5KMime7Headers7SubjectC1Ev@ABI_5_1 17.12.1
 _ZN5KMime7Headers7SubjectC2Ev@ABI_5_1 17.12.1
 _ZN5KMime7Headers7SubjectD0Ev@ABI_5_1 17.12.1
 _ZN5KMime7Headers7SubjectD1Ev@ABI_5_1 17.12.1
 _ZN5KMime7Headers7SubjectD2Ev@ABI_5_1 17.12.1
 _ZN5KMime7Headers8Generics10PhraseList5clearEv@ABI_5_1 17.12.1
 _ZN5KMime7Headers8Generics10PhraseList5parseERPKcS4_b@ABI_5_1 17.12.1
 _ZN5KMime7Headers8Generics10PhraseListC1Ev@ABI_5_1 17.12.1
 _ZN5KMime7Headers8Generics10PhraseListC2Ev@ABI_5_1 17.12.1
 _ZN5KMime7Headers8Generics10PhraseListD0Ev@ABI_5_1 17.12.1
 _ZN5KMime7Headers8Generics10PhraseListD1Ev@ABI_5_1 17.12.1
 _ZN5KMime7Headers8Generics10PhraseListD2Ev@ABI_5_1 17.12.1
 _ZN5KMime7Headers8Generics10Structured14from7BitStringEPKcm@ABI_5_1 17.12.1
 _ZN5KMime7Headers8Generics10Structured14from7BitStringERK10QByteArray@ABI_5_1 17.12.1
 _ZN5KMime7Headers8Generics10Structured17fromUnicodeStringERK7QStringRK10QByteArray@ABI_5_1 17.12.1
 _ZN5KMime7Headers8Generics10StructuredC1EPNS1_17StructuredPrivateE@ABI_5_1 17.12.1
 _ZN5KMime7Headers8Generics10StructuredC1Ev@ABI_5_1 17.12.1
 _ZN5KMime7Headers8Generics10StructuredC2EPNS1_17StructuredPrivateE@ABI_5_1 17.12.1
 _ZN5KMime7Headers8Generics10StructuredC2Ev@ABI_5_1 17.12.1
 _ZN5KMime7Headers8Generics10StructuredD0Ev@ABI_5_1 17.12.1
 _ZN5KMime7Headers8Generics10StructuredD1Ev@ABI_5_1 17.12.1
 _ZN5KMime7Headers8Generics10StructuredD2Ev@ABI_5_1 17.12.1
 _ZN5KMime7Headers8Generics11AddressList10addAddressERK10QByteArrayRK7QString@ABI_5_1 17.12.1
 _ZN5KMime7Headers8Generics11AddressList10addAddressERKNS_5Types7MailboxE@ABI_5_1 17.12.1
 _ZN5KMime7Headers8Generics11AddressList17fromUnicodeStringERK7QStringRK10QByteArray@ABI_5_1 17.12.1
 _ZN5KMime7Headers8Generics11AddressList5clearEv@ABI_5_1 17.12.1
 _ZN5KMime7Headers8Generics11AddressList5parseERPKcS4_b@ABI_5_1 17.12.1
 _ZN5KMime7Headers8Generics11AddressListC1EPNS1_18AddressListPrivateE@ABI_5_1 17.12.1
 _ZN5KMime7Headers8Generics11AddressListC1Ev@ABI_5_1 17.12.1
 _ZN5KMime7Headers8Generics11AddressListC2EPNS1_18AddressListPrivateE@ABI_5_1 17.12.1
 _ZN5KMime7Headers8Generics11AddressListC2Ev@ABI_5_1 17.12.1
 _ZN5KMime7Headers8Generics11AddressListD0Ev@ABI_5_1 17.12.1
 _ZN5KMime7Headers8Generics11AddressListD1Ev@ABI_5_1 17.12.1
 _ZN5KMime7Headers8Generics11AddressListD2Ev@ABI_5_1 17.12.1
 _ZN5KMime7Headers8Generics11MailboxList10addAddressERK10QByteArrayRK7QString@ABI_5_1 17.12.1
 _ZN5KMime7Headers8Generics11MailboxList10addAddressERKNS_5Types7MailboxE@ABI_5_1 17.12.1
 _ZN5KMime7Headers8Generics11MailboxList17fromUnicodeStringERK7QStringRK10QByteArray@ABI_5_1 17.12.1
 _ZN5KMime7Headers8Generics11MailboxList5clearEv@ABI_5_1 17.12.1
 _ZN5KMime7Headers8Generics11MailboxList5parseERPKcS4_b@ABI_5_1 17.12.1
 _ZN5KMime7Headers8Generics11MailboxListC1EPNS1_18MailboxListPrivateE@ABI_5_1 17.12.1
 _ZN5KMime7Headers8Generics11MailboxListC1Ev@ABI_5_1 17.12.1
 _ZN5KMime7Headers8Generics11MailboxListC2EPNS1_18MailboxListPrivateE@ABI_5_1 17.12.1
 _ZN5KMime7Headers8Generics11MailboxListC2Ev@ABI_5_1 17.12.1
 _ZN5KMime7Headers8Generics11MailboxListD0Ev@ABI_5_1 17.12.1
 _ZN5KMime7Headers8Generics11MailboxListD1Ev@ABI_5_1 17.12.1
 _ZN5KMime7Headers8Generics11MailboxListD2Ev@ABI_5_1 17.12.1
 _ZN5KMime7Headers8Generics11SingleIdent13setIdentifierERK10QByteArray@ABI_5_1 17.12.1
 _ZN5KMime7Headers8Generics11SingleIdent5parseERPKcS4_b@ABI_5_1 17.12.1
 _ZN5KMime7Headers8Generics11SingleIdentC1EPNS1_18SingleIdentPrivateE@ABI_5_1 17.12.1
 _ZN5KMime7Headers8Generics11SingleIdentC1Ev@ABI_5_1 17.12.1
 _ZN5KMime7Headers8Generics11SingleIdentC2EPNS1_18SingleIdentPrivateE@ABI_5_1 17.12.1
 _ZN5KMime7Headers8Generics11SingleIdentC2Ev@ABI_5_1 17.12.1
 _ZN5KMime7Headers8Generics11SingleIdentD0Ev@ABI_5_1 17.12.1
 _ZN5KMime7Headers8Generics11SingleIdentD1Ev@ABI_5_1 17.12.1
 _ZN5KMime7Headers8Generics11SingleIdentD2Ev@ABI_5_1 17.12.1
 _ZN5KMime7Headers8Generics12Parametrized12setParameterERK7QStringS5_@ABI_5_1 17.12.1
 _ZN5KMime7Headers8Generics12Parametrized5clearEv@ABI_5_1 17.12.1
 _ZN5KMime7Headers8Generics12Parametrized5parseERPKcS4_b@ABI_5_1 17.12.1
 _ZN5KMime7Headers8Generics12ParametrizedC1EPNS1_19ParametrizedPrivateE@ABI_5_1 17.12.1
 _ZN5KMime7Headers8Generics12ParametrizedC1Ev@ABI_5_1 17.12.1
 _ZN5KMime7Headers8Generics12ParametrizedC2EPNS1_19ParametrizedPrivateE@ABI_5_1 17.12.1
 _ZN5KMime7Headers8Generics12ParametrizedC2Ev@ABI_5_1 17.12.1
 _ZN5KMime7Headers8Generics12ParametrizedD0Ev@ABI_5_1 17.12.1
 _ZN5KMime7Headers8Generics12ParametrizedD1Ev@ABI_5_1 17.12.1
 _ZN5KMime7Headers8Generics12ParametrizedD2Ev@ABI_5_1 17.12.1
 _ZN5KMime7Headers8Generics12Unstructured14from7BitStringERK10QByteArray@ABI_5_1 17.12.1
 _ZN5KMime7Headers8Generics12Unstructured17fromUnicodeStringERK7QStringRK10QByteArray@ABI_5_1 17.12.1
 _ZN5KMime7Headers8Generics12Unstructured5clearEv@ABI_5_1 17.12.1
 _ZN5KMime7Headers8Generics12UnstructuredC1EPNS1_19UnstructuredPrivateE@ABI_5_1 17.12.1
 _ZN5KMime7Headers8Generics12UnstructuredC1Ev@ABI_5_1 17.12.1
 _ZN5KMime7Headers8Generics12UnstructuredC2EPNS1_19UnstructuredPrivateE@ABI_5_1 17.12.1
 _ZN5KMime7Headers8Generics12UnstructuredC2Ev@ABI_5_1 17.12.1
 _ZN5KMime7Headers8Generics12UnstructuredD0Ev@ABI_5_1 17.12.1
 _ZN5KMime7Headers8Generics12UnstructuredD1Ev@ABI_5_1 17.12.1
 _ZN5KMime7Headers8Generics12UnstructuredD2Ev@ABI_5_1 17.12.1
 _ZN5KMime7Headers8Generics13SingleMailbox5parseERPKcS4_b@ABI_5_1 17.12.1
 _ZN5KMime7Headers8Generics13SingleMailboxC1Ev@ABI_5_1 17.12.1
 _ZN5KMime7Headers8Generics13SingleMailboxC2Ev@ABI_5_1 17.12.1
 _ZN5KMime7Headers8Generics13SingleMailboxD0Ev@ABI_5_1 17.12.1
 _ZN5KMime7Headers8Generics13SingleMailboxD1Ev@ABI_5_1 17.12.1
 _ZN5KMime7Headers8Generics13SingleMailboxD2Ev@ABI_5_1 17.12.1
 _ZN5KMime7Headers8Generics5Ident16appendIdentifierERK10QByteArray@ABI_5_1 17.12.1
 _ZN5KMime7Headers8Generics5Ident5clearEv@ABI_5_1 17.12.1
 _ZN5KMime7Headers8Generics5Ident5parseERPKcS4_b@ABI_5_1 17.12.1
 _ZN5KMime7Headers8Generics5Ident9fromIdentEPKS2_@ABI_5_1 17.12.1
 _ZN5KMime7Headers8Generics5IdentC1EPNS1_12IdentPrivateE@ABI_5_1 17.12.1
 _ZN5KMime7Headers8Generics5IdentC1Ev@ABI_5_1 17.12.1
 _ZN5KMime7Headers8Generics5IdentC2EPNS1_12IdentPrivateE@ABI_5_1 17.12.1
 _ZN5KMime7Headers8Generics5IdentC2Ev@ABI_5_1 17.12.1
 _ZN5KMime7Headers8Generics5IdentD0Ev@ABI_5_1 17.12.1
 _ZN5KMime7Headers8Generics5IdentD1Ev@ABI_5_1 17.12.1
 _ZN5KMime7Headers8Generics5IdentD2Ev@ABI_5_1 17.12.1
 _ZN5KMime7Headers8Generics5Token5clearEv@ABI_5_1 17.12.1
 _ZN5KMime7Headers8Generics5Token5parseERPKcS4_b@ABI_5_1 17.12.1
 _ZN5KMime7Headers8Generics5Token8setTokenERK10QByteArray@ABI_5_1 17.12.1
 _ZN5KMime7Headers8Generics5TokenC1EPNS1_12TokenPrivateE@ABI_5_1 17.12.1
 _ZN5KMime7Headers8Generics5TokenC1Ev@ABI_5_1 17.12.1
 _ZN5KMime7Headers8Generics5TokenC2EPNS1_12TokenPrivateE@ABI_5_1 17.12.1
 _ZN5KMime7Headers8Generics5TokenC2Ev@ABI_5_1 17.12.1
 _ZN5KMime7Headers8Generics5TokenD0Ev@ABI_5_1 17.12.1
 _ZN5KMime7Headers8Generics5TokenD1Ev@ABI_5_1 17.12.1
 _ZN5KMime7Headers8Generics5TokenD2Ev@ABI_5_1 17.12.1
 _ZN5KMime7Headers8Generics7AddressC1EPNS1_14AddressPrivateE@ABI_5_1 17.12.1
 _ZN5KMime7Headers8Generics7AddressC1Ev@ABI_5_1 17.12.1
 _ZN5KMime7Headers8Generics7AddressC2EPNS1_14AddressPrivateE@ABI_5_1 17.12.1
 _ZN5KMime7Headers8Generics7AddressC2Ev@ABI_5_1 17.12.1
 _ZN5KMime7Headers8Generics7AddressD0Ev@ABI_5_1 17.12.1
 _ZN5KMime7Headers8Generics7AddressD1Ev@ABI_5_1 17.12.1
 _ZN5KMime7Headers8Generics7AddressD2Ev@ABI_5_1 17.12.1
 _ZN5KMime7Headers8Generics7DotAtom5clearEv@ABI_5_1 17.12.1
 _ZN5KMime7Headers8Generics7DotAtom5parseERPKcS4_b@ABI_5_1 17.12.1
 _ZN5KMime7Headers8Generics7DotAtomC1Ev@ABI_5_1 17.12.1
 _ZN5KMime7Headers8Generics7DotAtomC2Ev@ABI_5_1 17.12.1
 _ZN5KMime7Headers8Generics7DotAtomD0Ev@ABI_5_1 17.12.1
 _ZN5KMime7Headers8Generics7DotAtomD1Ev@ABI_5_1 17.12.1
 _ZN5KMime7Headers8Generics7DotAtomD2Ev@ABI_5_1 17.12.1
 _ZN5KMime7Headers8Keywords10staticTypeEv@ABI_5_1 17.12.1
 _ZN5KMime7Headers8KeywordsC1Ev@ABI_5_1 17.12.1
 _ZN5KMime7Headers8KeywordsC2Ev@ABI_5_1 17.12.1
 _ZN5KMime7Headers8KeywordsD0Ev@ABI_5_1 17.12.1
 _ZN5KMime7Headers8KeywordsD1Ev@ABI_5_1 17.12.1
 _ZN5KMime7Headers8KeywordsD2Ev@ABI_5_1 17.12.1
 _ZN5KMime7Headers9ContentID10staticTypeEv@ABI_5_1 17.12.1
 _ZN5KMime7Headers9ContentID5parseERPKcS3_b@ABI_5_1 17.12.1
 _ZN5KMime7Headers9ContentIDC1EPNS0_16ContentIDPrivateE@ABI_5_1 17.12.1
 _ZN5KMime7Headers9ContentIDC1Ev@ABI_5_1 17.12.1
 _ZN5KMime7Headers9ContentIDC2EPNS0_16ContentIDPrivateE@ABI_5_1 17.12.1
 _ZN5KMime7Headers9ContentIDC2Ev@ABI_5_1 17.12.1
 _ZN5KMime7Headers9ContentIDD0Ev@ABI_5_1 17.12.1
 _ZN5KMime7Headers9ContentIDD1Ev@ABI_5_1 17.12.1
 _ZN5KMime7Headers9ContentIDD2Ev@ABI_5_1 17.12.1
 _ZN5KMime7Headers9InReplyTo10staticTypeEv@ABI_5_1 17.12.1
 _ZN5KMime7Headers9InReplyToC1Ev@ABI_5_1 17.12.1
 _ZN5KMime7Headers9InReplyToC2Ev@ABI_5_1 17.12.1
 _ZN5KMime7Headers9InReplyToD0Ev@ABI_5_1 17.12.1
 _ZN5KMime7Headers9InReplyToD1Ev@ABI_5_1 17.12.1
 _ZN5KMime7Headers9InReplyToD2Ev@ABI_5_1 17.12.1
 _ZN5KMime7Headers9MessageID10staticTypeEv@ABI_5_1 17.12.1
 _ZN5KMime7Headers9MessageID8generateERK10QByteArray@ABI_5_1 17.12.1
 _ZN5KMime7Headers9MessageIDC1Ev@ABI_5_1 17.12.1
 _ZN5KMime7Headers9MessageIDC2Ev@ABI_5_1 17.12.1
 _ZN5KMime7Headers9MessageIDD0Ev@ABI_5_1 17.12.1
 _ZN5KMime7Headers9MessageIDD1Ev@ABI_5_1 17.12.1
 _ZN5KMime7Headers9MessageIDD2Ev@ABI_5_1 17.12.1
 _ZN5KMime7Headers9UserAgent10staticTypeEv@ABI_5_1 17.12.1
 _ZN5KMime7Headers9UserAgentC1Ev@ABI_5_1 17.12.1
 _ZN5KMime7Headers9UserAgentC2Ev@ABI_5_1 17.12.1
 _ZN5KMime7Headers9UserAgentD0Ev@ABI_5_1 17.12.1
 _ZN5KMime7Headers9UserAgentD1Ev@ABI_5_1 17.12.1
 _ZN5KMime7Headers9UserAgentD2Ev@ABI_5_1 17.12.1
 _ZN5KMime7Message10referencesEb@ABI_5_1 17.12.1
 _ZN5KMime7Message12mainBodyPartERK10QByteArray@ABI_5_1 17.12.1
 _ZN5KMime7Message12organizationEb@ABI_5_1 17.12.1
 _ZN5KMime7Message15assembleHeadersEv@ABI_5_1 17.12.1
 _ZN5KMime7Message2ccEb@ABI_5_1 17.12.1
 _ZN5KMime7Message2toEb@ABI_5_1 17.12.1
 _ZN5KMime7Message3bccEb@ABI_5_1 17.12.1
 _ZN5KMime7Message4dateEb@ABI_5_1 17.12.1
 _ZN5KMime7Message4fromEb@ABI_5_1 17.12.1
 _ZN5KMime7Message6senderEb@ABI_5_1 17.12.1
 _ZN5KMime7Message7replyToEb@ABI_5_1 17.12.1
 _ZN5KMime7Message7subjectEb@ABI_5_1 17.12.1
 _ZN5KMime7Message8mimeTypeEv@ABI_5_1 17.12.1
 _ZN5KMime7Message9inReplyToEb@ABI_5_1 17.12.1
 _ZN5KMime7Message9messageIDEb@ABI_5_1 17.12.1
 _ZN5KMime7Message9userAgentEb@ABI_5_1 17.12.1
 _ZN5KMime7MessageC1Ev@ABI_5_1 17.12.1
 _ZN5KMime7MessageC2Ev@ABI_5_1 17.12.1
 _ZN5KMime7MessageD0Ev@ABI_5_1 17.12.1
 _ZN5KMime7MessageD1Ev@ABI_5_1 17.12.1
 _ZN5KMime7MessageD2Ev@ABI_5_1 17.12.1
 _ZN5KMime8CRLFtoLFEPKc@ABI_5_1 17.12.1
 _ZN5KMime8CRLFtoLFERK10QByteArray@ABI_5_1 17.12.1
 _ZN5KMime8LFtoCRLFERK10QByteArray@ABI_5_1 17.12.1
 _ZN5KMime8isSignedEPNS_7MessageE@ABI_5_1 17.12.1
 _ZN5KMime9addQuotesER10QByteArrayb@ABI_5_1 17.12.1
 _ZN5KMime9addQuotesER7QStringb@ABI_5_1 17.12.1
 _ZN5KMime9isUsAsciiERK7QString@ABI_5_1 17.12.1
 _ZNK5KMime12ContentIndex7isValidEv@ABI_5_1 17.12.1
 _ZNK5KMime12ContentIndex8toStringEv@ABI_5_1 17.12.1
 _ZNK5KMime12ContentIndexeqERKS0_@ABI_5_1 17.12.1
 _ZNK5KMime12ContentIndexneERKS0_@ABI_5_1 17.12.1
 _ZNK5KMime13DateFormatter10dateStringERK9QDateTimeRK7QStringb@ABI_5_1 17.12.1
 (subst)_ZNK5KMime13DateFormatter10dateStringE{time_t}RK7QStringb@ABI_5_1 17.12.1
 _ZNK5KMime13DateFormatter12customFormatEv@ABI_5_1 17.12.1
 _ZNK5KMime13DateFormatter6formatEv@ABI_5_1 17.12.1
 _ZNK5KMime5Types7Mailbox10hasAddressEv@ABI_5_1 17.12.1
 _ZNK5KMime5Types7Mailbox12as7BitStringERK10QByteArray@ABI_5_1 17.12.1
 _ZNK5KMime5Types7Mailbox13prettyAddressENS1_7QuotingE@ABI_5_1 17.12.1
 _ZNK5KMime5Types7Mailbox4nameEv@ABI_5_1 17.12.1
 _ZNK5KMime5Types7Mailbox7addressEv@ABI_5_1 17.12.1
 _ZNK5KMime5Types7Mailbox7hasNameEv@ABI_5_1 17.12.1
 _ZNK5KMime5Types7Mailbox8addrSpecEv@ABI_5_1 17.12.1
 _ZNK5KMime5Types8AddrSpec14asPrettyStringEv@ABI_5_1 17.12.1
 _ZNK5KMime5Types8AddrSpec7isEmptyEv@ABI_5_1 17.12.1
 _ZNK5KMime5Types8AddrSpec8asStringEv@ABI_5_1 17.12.1
 _ZNK5KMime7Content10hasContentEv@ABI_5_1 17.12.1
 _ZNK5KMime7Content10isTopLevelEv@ABI_5_1 17.12.1
 _ZNK5KMime7Content11storageSizeEv@ABI_5_1 17.12.1
 _ZNK5KMime7Content12headerByTypeEPKc@ABI_5_1 17.12.1
 _ZNK5KMime7Content13bodyAsMessageEv@ABI_5_1 17.12.1
 _ZNK5KMime7Content13bodyIsMessageEv@ABI_5_1 17.12.1
 _ZNK5KMime7Content13headersByTypeEPKc@ABI_5_1 17.12.1
 _ZNK5KMime7Content15indexForContentEPS0_@ABI_5_1 17.12.1
 _ZNK5KMime7Content4bodyEv@ABI_5_1 17.12.1
 _ZNK5KMime7Content4headEv@ABI_5_1 17.12.1
 _ZNK5KMime7Content5indexEv@ABI_5_1 17.12.1
 _ZNK5KMime7Content6parentEv@ABI_5_1 17.12.1
 _ZNK5KMime7Content7contentERKNS_12ContentIndexE@ABI_5_1 17.12.1
 _ZNK5KMime7Content7headersEv@ABI_5_1 17.12.1
 _ZNK5KMime7Content8contentsEv@ABI_5_1 17.12.1
 _ZNK5KMime7Content8epilogueEv@ABI_5_1 17.12.1
 _ZNK5KMime7Content8isFrozenEv@ABI_5_1 17.12.1
 _ZNK5KMime7Content8preambleEv@ABI_5_1 17.12.1
 _ZNK5KMime7Content8topLevelEv@ABI_5_1 17.12.1
 _ZNK5KMime7Content9hasHeaderEPKc@ABI_5_1 17.12.1
 _ZNK5KMime7Content9lineCountEv@ABI_5_1 17.12.1
 _ZNK5KMime7Headers10FollowUpTo4typeEv@ABI_5_1 17.12.1
 _ZNK5KMime7Headers10Newsgroups12as7BitStringEb@ABI_5_1 17.12.1
 _ZNK5KMime7Headers10Newsgroups13isCrosspostedEv@ABI_5_1 17.12.1
 _ZNK5KMime7Headers10Newsgroups15asUnicodeStringEv@ABI_5_1 17.12.1
 _ZNK5KMime7Headers10Newsgroups4typeEv@ABI_5_1 17.12.1
 _ZNK5KMime7Headers10Newsgroups6groupsEv@ABI_5_1 17.12.1
 _ZNK5KMime7Headers10Newsgroups7isEmptyEv@ABI_5_1 17.12.1
 _ZNK5KMime7Headers10References4typeEv@ABI_5_1 17.12.1
 _ZNK5KMime7Headers10ReturnPath12as7BitStringEb@ABI_5_1 17.12.1
 _ZNK5KMime7Headers10ReturnPath4typeEv@ABI_5_1 17.12.1
 _ZNK5KMime7Headers10ReturnPath7isEmptyEv@ABI_5_1 17.12.1
 _ZNK5KMime7Headers10Supersedes4typeEv@ABI_5_1 17.12.1
 _ZNK5KMime7Headers11ContentType10isHTMLTextEv@ABI_5_1 17.12.1
 _ZNK5KMime7Headers11ContentType10isMimeTypeEPKc@ABI_5_1 17.12.1
 _ZNK5KMime7Headers11ContentType11isMediatypeEPKc@ABI_5_1 17.12.1
 _ZNK5KMime7Headers11ContentType11isMultipartEv@ABI_5_1 17.12.1
 _ZNK5KMime7Headers11ContentType11isPlainTextEv@ABI_5_1 17.12.1
 _ZNK5KMime7Headers11ContentType12as7BitStringEb@ABI_5_1 17.12.1
 _ZNK5KMime7Headers11ContentType12partialCountEv@ABI_5_1 17.12.1
 _ZNK5KMime7Headers11ContentType13partialNumberEv@ABI_5_1 17.12.1
 _ZNK5KMime7Headers11ContentType2idEv@ABI_5_1 17.12.1
 _ZNK5KMime7Headers11ContentType4nameEv@ABI_5_1 17.12.1
 _ZNK5KMime7Headers11ContentType4typeEv@ABI_5_1 17.12.1
 _ZNK5KMime7Headers11ContentType6isTextEv@ABI_5_1 17.12.1
 _ZNK5KMime7Headers11ContentType7charsetEv@ABI_5_1 17.12.1
 _ZNK5KMime7Headers11ContentType7isEmptyEv@ABI_5_1 17.12.1
 _ZNK5KMime7Headers11ContentType7isImageEv@ABI_5_1 17.12.1
 _ZNK5KMime7Headers11ContentType7subTypeEv@ABI_5_1 17.12.1
 _ZNK5KMime7Headers11ContentType8boundaryEv@ABI_5_1 17.12.1
 _ZNK5KMime7Headers11ContentType8categoryEv@ABI_5_1 17.12.1
 _ZNK5KMime7Headers11ContentType8mimeTypeEv@ABI_5_1 17.12.1
 _ZNK5KMime7Headers11ContentType9isPartialEv@ABI_5_1 17.12.1
 _ZNK5KMime7Headers11ContentType9isSubtypeEPKc@ABI_5_1 17.12.1
 _ZNK5KMime7Headers11ContentType9mediaTypeEv@ABI_5_1 17.12.1
 _ZNK5KMime7Headers11MIMEVersion4typeEv@ABI_5_1 17.12.1
 _ZNK5KMime7Headers12MailCopiesTo10alwaysCopyEv@ABI_5_1 17.12.1
 _ZNK5KMime7Headers12MailCopiesTo12as7BitStringEb@ABI_5_1 17.12.1
 _ZNK5KMime7Headers12MailCopiesTo15asUnicodeStringEv@ABI_5_1 17.12.1
 _ZNK5KMime7Headers12MailCopiesTo4typeEv@ABI_5_1 17.12.1
 _ZNK5KMime7Headers12MailCopiesTo7isEmptyEv@ABI_5_1 17.12.1
 _ZNK5KMime7Headers12MailCopiesTo9neverCopyEv@ABI_5_1 17.12.1
 _ZNK5KMime7Headers12Organization4typeEv@ABI_5_1 17.12.1
 _ZNK5KMime7Headers15ContentLocation4typeEv@ABI_5_1 17.12.1
 _ZNK5KMime7Headers18ContentDescription4typeEv@ABI_5_1 17.12.1
 _ZNK5KMime7Headers18ContentDisposition11dispositionEv@ABI_5_1 17.12.1
 _ZNK5KMime7Headers18ContentDisposition12as7BitStringEb@ABI_5_1 17.12.1
 _ZNK5KMime7Headers18ContentDisposition4typeEv@ABI_5_1 17.12.1
 _ZNK5KMime7Headers18ContentDisposition7isEmptyEv@ABI_5_1 17.12.1
 _ZNK5KMime7Headers18ContentDisposition8filenameEv@ABI_5_1 17.12.1
 _ZNK5KMime7Headers23ContentTransferEncoding12needToEncodeEv@ABI_5_1 17.12.1
 _ZNK5KMime7Headers23ContentTransferEncoding4typeEv@ABI_5_1 17.12.1
 _ZNK5KMime7Headers23ContentTransferEncoding8encodingEv@ABI_5_1 17.12.1
 _ZNK5KMime7Headers23ContentTransferEncoding9isDecodedEv@ABI_5_1 17.12.1
 _ZNK5KMime7Headers2Cc4typeEv@ABI_5_1 17.12.1
 _ZNK5KMime7Headers2To4typeEv@ABI_5_1 17.12.1
 _ZNK5KMime7Headers3Bcc4typeEv@ABI_5_1 17.12.1
 _ZNK5KMime7Headers4Base12isMimeHeaderEv@ABI_5_1 17.12.1
 _ZNK5KMime7Headers4Base14rfc2047CharsetEv@ABI_5_1 17.12.1
 _ZNK5KMime7Headers4Base2isEPKc@ABI_5_1 17.12.1
 _ZNK5KMime7Headers4Base4typeEv@ABI_5_1 17.12.1
 _ZNK5KMime7Headers4Base9typeIntroEv@ABI_5_1 17.12.1
 _ZNK5KMime7Headers4Date12as7BitStringEb@ABI_5_1 17.12.1
 _ZNK5KMime7Headers4Date4typeEv@ABI_5_1 17.12.1
 _ZNK5KMime7Headers4Date7isEmptyEv@ABI_5_1 17.12.1
 _ZNK5KMime7Headers4Date8dateTimeEv@ABI_5_1 17.12.1
 _ZNK5KMime7Headers4Date9ageInDaysEv@ABI_5_1 17.12.1
 _ZNK5KMime7Headers4From4typeEv@ABI_5_1 17.12.1
 _ZNK5KMime7Headers5Lines12as7BitStringEb@ABI_5_1 17.12.1
 _ZNK5KMime7Headers5Lines13numberOfLinesEv@ABI_5_1 17.12.1
 _ZNK5KMime7Headers5Lines15asUnicodeStringEv@ABI_5_1 17.12.1
 _ZNK5KMime7Headers5Lines4typeEv@ABI_5_1 17.12.1
 _ZNK5KMime7Headers5Lines7isEmptyEv@ABI_5_1 17.12.1
 _ZNK5KMime7Headers6Sender4typeEv@ABI_5_1 17.12.1
 _ZNK5KMime7Headers7Control11controlTypeEv@ABI_5_1 17.12.1
 _ZNK5KMime7Headers7Control12as7BitStringEb@ABI_5_1 17.12.1
 _ZNK5KMime7Headers7Control4typeEv@ABI_5_1 17.12.1
 _ZNK5KMime7Headers7Control7isEmptyEv@ABI_5_1 17.12.1
 _ZNK5KMime7Headers7Control8isCancelEv@ABI_5_1 17.12.1
 _ZNK5KMime7Headers7Control9parameterEv@ABI_5_1 17.12.1
 _ZNK5KMime7Headers7Generic4typeEv@ABI_5_1 17.12.1
 _ZNK5KMime7Headers7Generic7isEmptyEv@ABI_5_1 17.12.1
 _ZNK5KMime7Headers7ReplyTo4typeEv@ABI_5_1 17.12.1
 _ZNK5KMime7Headers7Subject4typeEv@ABI_5_1 17.12.1
 _ZNK5KMime7Headers8Generics10PhraseList12as7BitStringEb@ABI_5_1 17.12.1
 _ZNK5KMime7Headers8Generics10PhraseList15asUnicodeStringEv@ABI_5_1 17.12.1
 _ZNK5KMime7Headers8Generics10PhraseList7isEmptyEv@ABI_5_1 17.12.1
 _ZNK5KMime7Headers8Generics10PhraseList7phrasesEv@ABI_5_1 17.12.1
 _ZNK5KMime7Headers8Generics10Structured15asUnicodeStringEv@ABI_5_1 17.12.1
 _ZNK5KMime7Headers8Generics11AddressList12as7BitStringEb@ABI_5_1 17.12.1
 _ZNK5KMime7Headers8Generics11AddressList12displayNamesEv@ABI_5_1 17.12.1
 _ZNK5KMime7Headers8Generics11AddressList13displayStringEv@ABI_5_1 17.12.1
 _ZNK5KMime7Headers8Generics11AddressList15asUnicodeStringEv@ABI_5_1 17.12.1
 _ZNK5KMime7Headers8Generics11AddressList7isEmptyEv@ABI_5_1 17.12.1
 _ZNK5KMime7Headers8Generics11AddressList9addressesEv@ABI_5_1 17.12.1
 _ZNK5KMime7Headers8Generics11AddressList9mailboxesEv@ABI_5_1 17.12.1
 _ZNK5KMime7Headers8Generics11MailboxList12as7BitStringEb@ABI_5_1 17.12.1
 _ZNK5KMime7Headers8Generics11MailboxList12displayNamesEv@ABI_5_1 17.12.1
 _ZNK5KMime7Headers8Generics11MailboxList13displayStringEv@ABI_5_1 17.12.1
 _ZNK5KMime7Headers8Generics11MailboxList15asUnicodeStringEv@ABI_5_1 17.12.1
 _ZNK5KMime7Headers8Generics11MailboxList7isEmptyEv@ABI_5_1 17.12.1
 _ZNK5KMime7Headers8Generics11MailboxList9addressesEv@ABI_5_1 17.12.1
 _ZNK5KMime7Headers8Generics11MailboxList9mailboxesEv@ABI_5_1 17.12.1
 _ZNK5KMime7Headers8Generics11SingleIdent10identifierEv@ABI_5_1 17.12.1
 _ZNK5KMime7Headers8Generics12Parametrized12as7BitStringEb@ABI_5_1 17.12.1
 _ZNK5KMime7Headers8Generics12Parametrized12hasParameterERK7QString@ABI_5_1 17.12.1
 _ZNK5KMime7Headers8Generics12Parametrized7isEmptyEv@ABI_5_1 17.12.1
 _ZNK5KMime7Headers8Generics12Parametrized9parameterERK7QString@ABI_5_1 17.12.1
 _ZNK5KMime7Headers8Generics12Unstructured12as7BitStringEb@ABI_5_1 17.12.1
 _ZNK5KMime7Headers8Generics12Unstructured15asUnicodeStringEv@ABI_5_1 17.12.1
 _ZNK5KMime7Headers8Generics12Unstructured7isEmptyEv@ABI_5_1 17.12.1
 _ZNK5KMime7Headers8Generics5Ident11identifiersEv@ABI_5_1 17.12.1
 _ZNK5KMime7Headers8Generics5Ident12as7BitStringEb@ABI_5_1 17.12.1
 _ZNK5KMime7Headers8Generics5Ident7isEmptyEv@ABI_5_1 17.12.1
 _ZNK5KMime7Headers8Generics5Token12as7BitStringEb@ABI_5_1 17.12.1
 _ZNK5KMime7Headers8Generics5Token5tokenEv@ABI_5_1 17.12.1
 _ZNK5KMime7Headers8Generics5Token7isEmptyEv@ABI_5_1 17.12.1
 _ZNK5KMime7Headers8Generics7DotAtom12as7BitStringEb@ABI_5_1 17.12.1
 _ZNK5KMime7Headers8Generics7DotAtom15asUnicodeStringEv@ABI_5_1 17.12.1
 _ZNK5KMime7Headers8Generics7DotAtom7isEmptyEv@ABI_5_1 17.12.1
 _ZNK5KMime7Headers8Keywords4typeEv@ABI_5_1 17.12.1
 _ZNK5KMime7Headers9ContentID4typeEv@ABI_5_1 17.12.1
 _ZNK5KMime7Headers9InReplyTo4typeEv@ABI_5_1 17.12.1
 _ZNK5KMime7Headers9MessageID4typeEv@ABI_5_1 17.12.1
 _ZNK5KMime7Headers9UserAgent4typeEv@ABI_5_1 17.12.1
 _ZTIN5KMime11NewsArticleE@ABI_5_1 17.12.1
 _ZTIN5KMime7ContentE@ABI_5_1 17.12.1
 _ZTIN5KMime7Headers10FollowUpToE@ABI_5_1 17.12.1
 _ZTIN5KMime7Headers10NewsgroupsE@ABI_5_1 17.12.1
 _ZTIN5KMime7Headers10ReferencesE@ABI_5_1 17.12.1
 _ZTIN5KMime7Headers10ReturnPathE@ABI_5_1 17.12.1
 _ZTIN5KMime7Headers10SupersedesE@ABI_5_1 17.12.1
 _ZTIN5KMime7Headers11ContentTypeE@ABI_5_1 17.12.1
 _ZTIN5KMime7Headers11MIMEVersionE@ABI_5_1 17.12.1
 _ZTIN5KMime7Headers12MailCopiesToE@ABI_5_1 17.12.1
 _ZTIN5KMime7Headers12OrganizationE@ABI_5_1 17.12.1
 _ZTIN5KMime7Headers15ContentLocationE@ABI_5_1 17.12.1
 _ZTIN5KMime7Headers18ContentDescriptionE@ABI_5_1 17.12.1
 _ZTIN5KMime7Headers18ContentDispositionE@ABI_5_1 17.12.1
 _ZTIN5KMime7Headers23ContentTransferEncodingE@ABI_5_1 17.12.1
 _ZTIN5KMime7Headers2CcE@ABI_5_1 17.12.1
 _ZTIN5KMime7Headers2ToE@ABI_5_1 17.12.1
 _ZTIN5KMime7Headers3BccE@ABI_5_1 17.12.1
 _ZTIN5KMime7Headers4BaseE@ABI_5_1 17.12.1
 _ZTIN5KMime7Headers4DateE@ABI_5_1 17.12.1
 _ZTIN5KMime7Headers4FromE@ABI_5_1 17.12.1
 _ZTIN5KMime7Headers5LinesE@ABI_5_1 17.12.1
 _ZTIN5KMime7Headers6SenderE@ABI_5_1 17.12.1
 _ZTIN5KMime7Headers7ControlE@ABI_5_1 17.12.1
 _ZTIN5KMime7Headers7GenericE@ABI_5_1 17.12.1
 _ZTIN5KMime7Headers7ReplyToE@ABI_5_1 17.12.1
 _ZTIN5KMime7Headers7SubjectE@ABI_5_1 17.12.1
 _ZTIN5KMime7Headers8Generics10PhraseListE@ABI_5_1 17.12.1
 _ZTIN5KMime7Headers8Generics10StructuredE@ABI_5_1 17.12.1
 _ZTIN5KMime7Headers8Generics11AddressListE@ABI_5_1 17.12.1
 _ZTIN5KMime7Headers8Generics11MailboxListE@ABI_5_1 17.12.1
 _ZTIN5KMime7Headers8Generics11SingleIdentE@ABI_5_1 17.12.1
 _ZTIN5KMime7Headers8Generics12ParametrizedE@ABI_5_1 17.12.1
 _ZTIN5KMime7Headers8Generics12UnstructuredE@ABI_5_1 17.12.1
 _ZTIN5KMime7Headers8Generics13SingleMailboxE@ABI_5_1 17.12.1
 _ZTIN5KMime7Headers8Generics5IdentE@ABI_5_1 17.12.1
 _ZTIN5KMime7Headers8Generics5TokenE@ABI_5_1 17.12.1
 _ZTIN5KMime7Headers8Generics7AddressE@ABI_5_1 17.12.1
 _ZTIN5KMime7Headers8Generics7DotAtomE@ABI_5_1 17.12.1
 _ZTIN5KMime7Headers8KeywordsE@ABI_5_1 17.12.1
 _ZTIN5KMime7Headers9ContentIDE@ABI_5_1 17.12.1
 _ZTIN5KMime7Headers9InReplyToE@ABI_5_1 17.12.1
 _ZTIN5KMime7Headers9MessageIDE@ABI_5_1 17.12.1
 _ZTIN5KMime7Headers9UserAgentE@ABI_5_1 17.12.1
 _ZTIN5KMime7MessageE@ABI_5_1 17.12.1
 _ZTSN5KMime11NewsArticleE@ABI_5_1 17.12.1
 _ZTSN5KMime7ContentE@ABI_5_1 17.12.1
 _ZTSN5KMime7Headers10FollowUpToE@ABI_5_1 17.12.1
 _ZTSN5KMime7Headers10NewsgroupsE@ABI_5_1 17.12.1
 _ZTSN5KMime7Headers10ReferencesE@ABI_5_1 17.12.1
 _ZTSN5KMime7Headers10ReturnPathE@ABI_5_1 17.12.1
 _ZTSN5KMime7Headers10SupersedesE@ABI_5_1 17.12.1
 _ZTSN5KMime7Headers11ContentTypeE@ABI_5_1 17.12.1
 _ZTSN5KMime7Headers11MIMEVersionE@ABI_5_1 17.12.1
 _ZTSN5KMime7Headers12MailCopiesToE@ABI_5_1 17.12.1
 _ZTSN5KMime7Headers12OrganizationE@ABI_5_1 17.12.1
 _ZTSN5KMime7Headers15ContentLocationE@ABI_5_1 17.12.1
 _ZTSN5KMime7Headers18ContentDescriptionE@ABI_5_1 17.12.1
 _ZTSN5KMime7Headers18ContentDispositionE@ABI_5_1 17.12.1
 _ZTSN5KMime7Headers23ContentTransferEncodingE@ABI_5_1 17.12.1
 _ZTSN5KMime7Headers2CcE@ABI_5_1 17.12.1
 _ZTSN5KMime7Headers2ToE@ABI_5_1 17.12.1
 _ZTSN5KMime7Headers3BccE@ABI_5_1 17.12.1
 _ZTSN5KMime7Headers4BaseE@ABI_5_1 17.12.1
 _ZTSN5KMime7Headers4DateE@ABI_5_1 17.12.1
 _ZTSN5KMime7Headers4FromE@ABI_5_1 17.12.1
 _ZTSN5KMime7Headers5LinesE@ABI_5_1 17.12.1
 _ZTSN5KMime7Headers6SenderE@ABI_5_1 17.12.1
 _ZTSN5KMime7Headers7ControlE@ABI_5_1 17.12.1
 _ZTSN5KMime7Headers7GenericE@ABI_5_1 17.12.1
 _ZTSN5KMime7Headers7ReplyToE@ABI_5_1 17.12.1
 _ZTSN5KMime7Headers7SubjectE@ABI_5_1 17.12.1
 _ZTSN5KMime7Headers8Generics10PhraseListE@ABI_5_1 17.12.1
 _ZTSN5KMime7Headers8Generics10StructuredE@ABI_5_1 17.12.1
 _ZTSN5KMime7Headers8Generics11AddressListE@ABI_5_1 17.12.1
 _ZTSN5KMime7Headers8Generics11MailboxListE@ABI_5_1 17.12.1
 _ZTSN5KMime7Headers8Generics11SingleIdentE@ABI_5_1 17.12.1
 _ZTSN5KMime7Headers8Generics12ParametrizedE@ABI_5_1 17.12.1
 _ZTSN5KMime7Headers8Generics12UnstructuredE@ABI_5_1 17.12.1
 _ZTSN5KMime7Headers8Generics13SingleMailboxE@ABI_5_1 17.12.1
 _ZTSN5KMime7Headers8Generics5IdentE@ABI_5_1 17.12.1
 _ZTSN5KMime7Headers8Generics5TokenE@ABI_5_1 17.12.1
 _ZTSN5KMime7Headers8Generics7AddressE@ABI_5_1 17.12.1
 _ZTSN5KMime7Headers8Generics7DotAtomE@ABI_5_1 17.12.1
 _ZTSN5KMime7Headers8KeywordsE@ABI_5_1 17.12.1
 _ZTSN5KMime7Headers9ContentIDE@ABI_5_1 17.12.1
 _ZTSN5KMime7Headers9InReplyToE@ABI_5_1 17.12.1
 _ZTSN5KMime7Headers9MessageIDE@ABI_5_1 17.12.1
 _ZTSN5KMime7Headers9UserAgentE@ABI_5_1 17.12.1
 _ZTSN5KMime7MessageE@ABI_5_1 17.12.1
 _ZTVN5KMime11NewsArticleE@ABI_5_1 17.12.1
 _ZTVN5KMime7ContentE@ABI_5_1 17.12.1
 _ZTVN5KMime7Headers10FollowUpToE@ABI_5_1 17.12.1
 _ZTVN5KMime7Headers10NewsgroupsE@ABI_5_1 17.12.1
 _ZTVN5KMime7Headers10ReferencesE@ABI_5_1 17.12.1
 _ZTVN5KMime7Headers10ReturnPathE@ABI_5_1 17.12.1
 _ZTVN5KMime7Headers10SupersedesE@ABI_5_1 17.12.1
 _ZTVN5KMime7Headers11ContentTypeE@ABI_5_1 17.12.1
 _ZTVN5KMime7Headers11MIMEVersionE@ABI_5_1 17.12.1
 _ZTVN5KMime7Headers12MailCopiesToE@ABI_5_1 17.12.1
 _ZTVN5KMime7Headers12OrganizationE@ABI_5_1 17.12.1
 _ZTVN5KMime7Headers15ContentLocationE@ABI_5_1 17.12.1
 _ZTVN5KMime7Headers18ContentDescriptionE@ABI_5_1 17.12.1
 _ZTVN5KMime7Headers18ContentDispositionE@ABI_5_1 17.12.1
 _ZTVN5KMime7Headers23ContentTransferEncodingE@ABI_5_1 17.12.1
 _ZTVN5KMime7Headers2CcE@ABI_5_1 17.12.1
 _ZTVN5KMime7Headers2ToE@ABI_5_1 17.12.1
 _ZTVN5KMime7Headers3BccE@ABI_5_1 17.12.1
 _ZTVN5KMime7Headers4BaseE@ABI_5_1 17.12.1
 _ZTVN5KMime7Headers4DateE@ABI_5_1 17.12.1
 _ZTVN5KMime7Headers4FromE@ABI_5_1 17.12.1
 _ZTVN5KMime7Headers5LinesE@ABI_5_1 17.12.1
 _ZTVN5KMime7Headers6SenderE@ABI_5_1 17.12.1
 _ZTVN5KMime7Headers7ControlE@ABI_5_1 17.12.1
 _ZTVN5KMime7Headers7GenericE@ABI_5_1 17.12.1
 _ZTVN5KMime7Headers7ReplyToE@ABI_5_1 17.12.1
 _ZTVN5KMime7Headers7SubjectE@ABI_5_1 17.12.1
 _ZTVN5KMime7Headers8Generics10PhraseListE@ABI_5_1 17.12.1
 _ZTVN5KMime7Headers8Generics10StructuredE@ABI_5_1 17.12.1
 _ZTVN5KMime7Headers8Generics11AddressListE@ABI_5_1 17.12.1
 _ZTVN5KMime7Headers8Generics11MailboxListE@ABI_5_1 17.12.1
 _ZTVN5KMime7Headers8Generics11SingleIdentE@ABI_5_1 17.12.1
 _ZTVN5KMime7Headers8Generics12ParametrizedE@ABI_5_1 17.12.1
 _ZTVN5KMime7Headers8Generics12UnstructuredE@ABI_5_1 17.12.1
 _ZTVN5KMime7Headers8Generics13SingleMailboxE@ABI_5_1 17.12.1
 _ZTVN5KMime7Headers8Generics5IdentE@ABI_5_1 17.12.1
 _ZTVN5KMime7Headers8Generics5TokenE@ABI_5_1 17.12.1
 _ZTVN5KMime7Headers8Generics7AddressE@ABI_5_1 17.12.1
 _ZTVN5KMime7Headers8Generics7DotAtomE@ABI_5_1 17.12.1
 _ZTVN5KMime7Headers8KeywordsE@ABI_5_1 17.12.1
 _ZTVN5KMime7Headers9ContentIDE@ABI_5_1 17.12.1
 _ZTVN5KMime7Headers9InReplyToE@ABI_5_1 17.12.1
 _ZTVN5KMime7Headers9MessageIDE@ABI_5_1 17.12.1
 _ZTVN5KMime7Headers9UserAgentE@ABI_5_1 17.12.1
 _ZTVN5KMime7MessageE@ABI_5_1 17.12.1
